target datalayout = "e-m:e-p270:32:32-p271:32:32-p272:64:64-i64:64-i128:128-f80:128-n8:16:32:64-S128"
target triple = "x86_64-pc-linux-gnu"

%"class.std::__cxx11::basic_string" = type { %"struct.std::__cxx11::basic_string<char>::_Alloc_hider", i64, %union.anon }
%"struct.std::__cxx11::basic_string<char>::_Alloc_hider" = type { ptr }
%union.anon = type { i64, [8 x i8] }
%"class.cmsys::Status" = type { i32, %union.anon.3 }
%union.anon.3 = type { i32 }
%"struct.cmsys::SystemTools::CopyStatus" = type { %"class.cmsys::Status", i32 }

; Function Attrs: mustprogress nounwind uwtable
define linkonce_odr dso_local void @_ZN5cmsys6StatusC2Ev(ptr noundef nonnull align 4 dereferenceable(8) %0) unnamed_addr #4 comdat align 2 {
  %2 = alloca ptr, align 8
  store ptr %0, ptr %2, align 8, !tbaa !132
  %3 = load ptr, ptr %2, align 8
  %4 = getelementptr inbounds nuw %"class.cmsys::Status", ptr %3, i32 0, i32 0
  store i32 0, ptr %4, align 4, !tbaa !134
  ret void
}

; Function Attrs: mustprogress nounwind uwtable
define available_externally noundef ptr @_ZNKSt7__cxx1112basic_stringIcSt11char_traitsIcESaIcEE7_M_dataEv(ptr noundef nonnull align 8 dereferenceable(32) %0) #4 align 2 {
  %2 = alloca ptr, align 8
  store ptr %0, ptr %2, align 8, !tbaa !28
  %3 = load ptr, ptr %2, align 8
  %4 = getelementptr inbounds nuw %"class.std::__cxx11::basic_string", ptr %3, i32 0, i32 0
  %5 = getelementptr inbounds nuw %"struct.std::__cxx11::basic_string<char>::_Alloc_hider", ptr %4, i32 0, i32 0
  %6 = load ptr, ptr %5, align 8, !tbaa !191
  ret ptr %6
}

; Function Attrs: mustprogress nounwind uwtable
define linkonce_odr dso_local i64 @_ZN5cmsys6Status7SuccessEv() #4 comdat align 2 {
  %1 = alloca %"class.cmsys::Status", align 4
  call void @llvm.memset.p0.i64(ptr align 4 %1, i8 0, i64 8, i1 false)
  call void @_ZN5cmsys6StatusC2Ev(ptr noundef nonnull align 4 dereferenceable(8) %1) #1
  %2 = load i64, ptr %1, align 4
  ret i64 %2
}

; Function Attrs: mustprogress uwtable
define dso_local i64 @_ZN5cmsys11SystemTools10RemoveFileERKNSt7__cxx1112basic_stringIcSt11char_traitsIcESaIcEEE(ptr noundef nonnull align 8 dereferenceable(32) %0) #7 align 2 {
  %2 = alloca %"class.cmsys::Status", align 4
  %3 = alloca ptr, align 8
  store ptr %0, ptr %3, align 8, !tbaa !28
  %4 = load ptr, ptr %3, align 8, !tbaa !28
  %5 = call noundef ptr @_ZNKSt7__cxx1112basic_stringIcSt11char_traitsIcESaIcEE5c_strEv(ptr noundef nonnull align 8 dereferenceable(32) %4) #1
  %6 = call i32 @unlink(ptr noundef %5) #1
  %7 = icmp ne i32 %6, 0
  br i1 %7, label %8, label %14

8:                                                ; preds = %1
  %9 = call ptr @__errno_location() #22
  %10 = load i32, ptr %9, align 4, !tbaa !41
  %11 = icmp ne i32 %10, 2
  br i1 %11, label %12, label %14

12:                                               ; preds = %8
  %13 = call i64 @_ZN5cmsys6Status11POSIX_errnoEv()
  store i64 %13, ptr %2, align 4
  br label %16

14:                                               ; preds = %8, %1
  %15 = call i64 @_ZN5cmsys6Status7SuccessEv()
  store i64 %15, ptr %2, align 4
  br label %16

16:                                               ; preds = %14, %12
  %17 = load i64, ptr %2, align 4
  ret i64 %17
}

; Function Attrs: mustprogress nounwind uwtable
define linkonce_odr dso_local void @_ZN5cmsys11SystemTools10CopyStatusC2ENS_6StatusENS1_9WhichPathE(ptr noundef nonnull align 4 dereferenceable(12) %0, i64 %1, i32 noundef %2) unnamed_addr #4 comdat align 2 {
  %4 = alloca %"class.cmsys::Status", align 4
  %5 = alloca ptr, align 8
  %6 = alloca i32, align 4
  store i64 %1, ptr %4, align 4
  store ptr %0, ptr %5, align 8, !tbaa !106
  store i32 %2, ptr %6, align 4, !tbaa !108
  %7 = load ptr, ptr %5, align 8
  call void @llvm.memcpy.p0.p0.i64(ptr align 4 %7, ptr align 4 %4, i64 8, i1 false), !tbaa.struct !110
  %8 = getelementptr inbounds nuw %"struct.cmsys::SystemTools::CopyStatus", ptr %7, i32 0, i32 1
  %9 = load i32, ptr %6, align 4, !tbaa !108
  store i32 %9, ptr %8, align 4, !tbaa !113
  ret void
}

; Function Attrs: mustprogress nounwind uwtable
define available_externally noundef ptr @_ZNKSt7__cxx1112basic_stringIcSt11char_traitsIcESaIcEE5c_strEv(ptr noundef nonnull align 8 dereferenceable(32) %0) #4 align 2 {
  %2 = alloca ptr, align 8
  store ptr %0, ptr %2, align 8, !tbaa !28
  %3 = load ptr, ptr %2, align 8
  %4 = call noundef ptr @_ZNKSt7__cxx1112basic_stringIcSt11char_traitsIcESaIcEE7_M_dataEv(ptr noundef nonnull align 8 dereferenceable(32) %3)
  ret ptr %4
}

; Function Attrs: mustprogress uwtable
define dso_local { i64, i32 } @_ZN5cmsys11SystemTools16CloneFileContentERKNSt7__cxx1112basic_stringIcSt11char_traitsIcESaIcEEES8_(ptr noundef nonnull align 8 dereferenceable(32) %0, ptr noundef nonnull align 8 dereferenceable(32) %1) #7 align 2 {
  %3 = alloca %"struct.cmsys::SystemTools::CopyStatus", align 4
  %4 = alloca ptr, align 8
  %5 = alloca ptr, align 8
  %6 = alloca i32, align 4
  %7 = alloca %"class.cmsys::Status", align 4
  %8 = alloca i32, align 4
  %9 = alloca %"class.cmsys::Status", align 4
  %10 = alloca i32, align 4
  %11 = alloca %"class.cmsys::Status", align 4
  %12 = alloca %"class.cmsys::Status", align 4
  %13 = alloca %"struct.cmsys::SystemTools::CopyStatus", align 4
  %14 = alloca %"class.cmsys::Status", align 4
  %15 = alloca { i64, i32 }, align 8
  store ptr %0, ptr %4, align 8, !tbaa !28
  store ptr %1, ptr %5, align 8, !tbaa !28
  call void @llvm.lifetime.start.p0(i64 4, ptr %6) #1
  %16 = load ptr, ptr %4, align 8, !tbaa !28
  %17 = call noundef ptr @_ZNKSt7__cxx1112basic_stringIcSt11char_traitsIcESaIcEE5c_strEv(ptr noundef nonnull align 8 dereferenceable(32) %16) #1
  %18 = call i32 (ptr, i32, ...) @open(ptr noundef %17, i32 noundef 0)
  store i32 %18, ptr %6, align 4, !tbaa !41
  %19 = load i32, ptr %6, align 4, !tbaa !41
  %20 = icmp slt i32 %19, 0
  br i1 %20, label %21, label %24

21:                                               ; preds = %2
  %22 = call i64 @_ZN5cmsys6Status11POSIX_errnoEv()
  store i64 %22, ptr %7, align 4
  %23 = load i64, ptr %7, align 4
  call void @_ZN5cmsys11SystemTools10CopyStatusC2ENS_6StatusENS1_9WhichPathE(ptr noundef nonnull align 4 dereferenceable(12) %3, i64 %23, i32 noundef 1)
  store i32 1, ptr %8, align 4
  br label %53

24:                                               ; preds = %2
  %25 = load ptr, ptr %5, align 8, !tbaa !28
  %26 = call i64 @_ZN5cmsys11SystemTools10RemoveFileERKNSt7__cxx1112basic_stringIcSt11char_traitsIcESaIcEEE(ptr noundef nonnull align 8 dereferenceable(32) %25)
  store i64 %26, ptr %9, align 4
  call void @llvm.lifetime.start.p0(i64 4, ptr %10) #1
  %27 = load ptr, ptr %5, align 8, !tbaa !28
  %28 = call noundef ptr @_ZNKSt7__cxx1112basic_stringIcSt11char_traitsIcESaIcEE5c_strEv(ptr noundef nonnull align 8 dereferenceable(32) %27) #1
  %29 = call i32 (ptr, i32, ...) @open(ptr noundef %28, i32 noundef 577, i32 noundef 384)
  store i32 %29, ptr %10, align 4, !tbaa !41
  %30 = load i32, ptr %10, align 4, !tbaa !41
  %31 = icmp slt i32 %30, 0
  br i1 %31, label %32, label %37

32:                                               ; preds = %24
  %33 = call i64 @_ZN5cmsys6Status11POSIX_errnoEv()
  store i64 %33, ptr %11, align 4
  %34 = load i64, ptr %11, align 4
  call void @_ZN5cmsys11SystemTools10CopyStatusC2ENS_6StatusENS1_9WhichPathE(ptr noundef nonnull align 4 dereferenceable(12) %3, i64 %34, i32 noundef 2)
  %35 = load i32, ptr %6, align 4, !tbaa !41
  %36 = call i32 @close(i32 noundef %35)
  store i32 1, ptr %8, align 4
  br label %52

37:                                               ; preds = %24
  %38 = call i64 @_ZN5cmsys6Status7SuccessEv()
  store i64 %38, ptr %12, align 4
  %39 = load i64, ptr %12, align 4
  call void @_ZN5cmsys11SystemTools10CopyStatusC2ENS_6StatusENS1_9WhichPathE(ptr noundef nonnull align 4 dereferenceable(12) %3, i64 %39, i32 noundef 0)
  %40 = load i32, ptr %10, align 4, !tbaa !41
  %41 = load i32, ptr %6, align 4, !tbaa !41
  %42 = call i32 (i32, i64, ...) @ioctl(i32 noundef %40, i64 noundef 1074041865, i32 noundef %41) #1
  %43 = icmp slt i32 %42, 0
  br i1 %43, label %44, label %47

44:                                               ; preds = %37
  call void @llvm.lifetime.start.p0(i64 12, ptr %13) #1
  %45 = call i64 @_ZN5cmsys6Status11POSIX_errnoEv()
  store i64 %45, ptr %14, align 4
  %46 = load i64, ptr %14, align 4
  call void @_ZN5cmsys11SystemTools10CopyStatusC2ENS_6StatusENS1_9WhichPathE(ptr noundef nonnull align 4 dereferenceable(12) %13, i64 %46, i32 noundef 0)
  call void @llvm.memcpy.p0.p0.i64(ptr align 4 %3, ptr align 4 %13, i64 12, i1 false)
  call void @llvm.lifetime.end.p0(i64 12, ptr %13) #1
  br label %47

47:                                               ; preds = %44, %37
  %48 = load i32, ptr %6, align 4, !tbaa !41
  %49 = call i32 @close(i32 noundef %48)
  %50 = load i32, ptr %10, align 4, !tbaa !41
  %51 = call i32 @close(i32 noundef %50)
  store i32 1, ptr %8, align 4
  br label %52

52:                                               ; preds = %47, %32
  call void @llvm.lifetime.end.p0(i64 4, ptr %10) #1
  br label %53

53:                                               ; preds = %52, %21
  call void @llvm.lifetime.end.p0(i64 4, ptr %6) #1
  call void @llvm.memcpy.p0.p0.i64(ptr align 8 %15, ptr align 4 %3, i64 12, i1 false)
  %54 = load { i64, i32 }, ptr %15, align 8
  ret { i64, i32 } %54
}