; Function Attrs: mustprogress uwtable
define dso_local { i64, i32 } @_ZN5cmsys11SystemTools16CloneFileContentERKNSt7__cxx1112basic_stringIcSt11char_traitsIcESaIcEEES8_(ptr noundef nonnull readonly align 8 captures(none) dereferenceable(32) %0, ptr noundef nonnull readonly align 8 captures(none) dereferenceable(32) %1) local_unnamed_addr #6 align 2 {
  %3 = load ptr, ptr %0, align 8, !tbaa !21
  %4 = tail call i32 (ptr, i32, ...) @open(ptr noundef %3, i32 noundef 0)
  %5 = icmp slt i32 %4, 0
  br i1 %5, label %6, label %8

6:                                                ; preds = %2
  %7 = tail call i64 @_ZN5cmsys6Status11POSIX_errnoEv()
  br label %30

8:                                                ; preds = %2
  %9 = load ptr, ptr %1, align 8, !tbaa !21
  %10 = tail call i32 @unlink(ptr noundef %9) #39
  %.not.i = icmp eq i32 %10, 0
  br i1 %.not.i, label %_ZN5cmsys11SystemTools10RemoveFileERKNSt7__cxx1112basic_stringIcSt11char_traitsIcESaIcEEE.exit, label %11

11:                                               ; preds = %8
  %12 = tail call ptr @__errno_location() #42
  %13 = load i32, ptr %12, align 4, !tbaa !42
  %.not1.i = icmp eq i32 %13, 2
  br i1 %.not1.i, label %_ZN5cmsys11SystemTools10RemoveFileERKNSt7__cxx1112basic_stringIcSt11char_traitsIcESaIcEEE.exit, label %14

14:                                               ; preds = %11
  %15 = tail call i64 @_ZN5cmsys6Status11POSIX_errnoEv()
  br label %_ZN5cmsys11SystemTools10RemoveFileERKNSt7__cxx1112basic_stringIcSt11char_traitsIcESaIcEEE.exit

_ZN5cmsys11SystemTools10RemoveFileERKNSt7__cxx1112basic_stringIcSt11char_traitsIcESaIcEEE.exit: ; preds = %8, %11, %14
  %16 = load ptr, ptr %1, align 8, !tbaa !21
  %17 = tail call i32 (ptr, i32, ...) @open(ptr noundef %16, i32 noundef 577, i32 noundef 384)
  %18 = icmp slt i32 %17, 0
  br i1 %18, label %19, label %22

19:                                               ; preds = %_ZN5cmsys11SystemTools10RemoveFileERKNSt7__cxx1112basic_stringIcSt11char_traitsIcESaIcEEE.exit
  %20 = tail call i64 @_ZN5cmsys6Status11POSIX_errnoEv()
  %21 = tail call i32 @close(i32 noundef %4)
  br label %30

22:                                               ; preds = %_ZN5cmsys11SystemTools10RemoveFileERKNSt7__cxx1112basic_stringIcSt11char_traitsIcESaIcEEE.exit
  %23 = tail call i32 (i32, i64, ...) @ioctl(i32 noundef %17, i64 noundef 1074041865, i32 noundef %4) #39
  %24 = icmp slt i32 %23, 0
  br i1 %24, label %25, label %27

25:                                               ; preds = %22
  %26 = tail call i64 @_ZN5cmsys6Status11POSIX_errnoEv()
  br label %27

27:                                               ; preds = %25, %22
  %.sroa.016.1 = phi i64 [ %26, %25 ], [ 0, %22 ]
  %28 = tail call i32 @close(i32 noundef %4)
  %29 = tail call i32 @close(i32 noundef %17)
  br label %30

30:                                               ; preds = %19, %27, %6
  %.sroa.016.0 = phi i64 [ %7, %6 ], [ %20, %19 ], [ %.sroa.016.1, %27 ]
  %.sroa.5.0 = phi i32 [ 1, %6 ], [ 2, %19 ], [ 0, %27 ]
  %.fca.0.insert = insertvalue { i64, i32 } poison, i64 %.sroa.016.0, 0
  %.fca.1.insert = insertvalue { i64, i32 } %.fca.0.insert, i32 %.sroa.5.0, 1
  ret { i64, i32 } %.fca.1.insert
}